target datalayout = "e-m:e-p270:32:32-p271:32:32-p272:64:64-i64:64-i128:128-f80:128-n8:16:32:64-S128"
target triple = "x86_64-pc-linux-gnu"

%struct.mlib_image = type { i32, i32, i32, i32, i32, i32, ptr, ptr, [4 x i8], i32, i32, [3 x i32] }

; Function Attrs: nounwind uwtable
define hidden ptr @mlib_ImageSet(ptr noundef %0, i32 noundef %1, i32 noundef %2, i32 noundef %3, i32 noundef %4, i32 noundef %5, ptr noundef %6) #0 {
  %8 = alloca ptr, align 8
  %9 = alloca ptr, align 8
  %10 = alloca i32, align 4
  %11 = alloca i32, align 4
  %12 = alloca i32, align 4
  %13 = alloca i32, align 4
  %14 = alloca i32, align 4
  %15 = alloca ptr, align 8
  %16 = alloca i32, align 4
  %17 = alloca i32, align 4
  store ptr %0, ptr %9, align 8
  store i32 %1, ptr %10, align 4
  store i32 %2, ptr %11, align 4
  store i32 %3, ptr %12, align 4
  store i32 %4, ptr %13, align 4
  store i32 %5, ptr %14, align 4
  store ptr %6, ptr %15, align 8
  %18 = load ptr, ptr %9, align 8
  %19 = icmp eq ptr %18, null
  br i1 %19, label %20, label %21

20:                                               ; preds = %7
  store ptr null, ptr %8, align 8
  br label %196

21:                                               ; preds = %7
  %22 = load i32, ptr %10, align 4
  %23 = load ptr, ptr %9, align 8
  %24 = getelementptr inbounds %struct.mlib_image, ptr %23, i32 0, i32 0
  store i32 %22, ptr %24, align 8
  %25 = load i32, ptr %11, align 4
  %26 = load ptr, ptr %9, align 8
  %27 = getelementptr inbounds %struct.mlib_image, ptr %26, i32 0, i32 1
  store i32 %25, ptr %27, align 4
  %28 = load i32, ptr %12, align 4
  %29 = load ptr, ptr %9, align 8
  %30 = getelementptr inbounds %struct.mlib_image, ptr %29, i32 0, i32 2
  store i32 %28, ptr %30, align 8
  %31 = load i32, ptr %13, align 4
  %32 = load ptr, ptr %9, align 8
  %33 = getelementptr inbounds %struct.mlib_image, ptr %32, i32 0, i32 3
  store i32 %31, ptr %33, align 4
  %34 = load i32, ptr %14, align 4
  %35 = load ptr, ptr %9, align 8
  %36 = getelementptr inbounds %struct.mlib_image, ptr %35, i32 0, i32 4
  store i32 %34, ptr %36, align 8
  %37 = load ptr, ptr %15, align 8
  %38 = load ptr, ptr %9, align 8
  %39 = getelementptr inbounds %struct.mlib_image, ptr %38, i32 0, i32 6
  store ptr %37, ptr %39, align 8
  %40 = load ptr, ptr %9, align 8
  %41 = getelementptr inbounds %struct.mlib_image, ptr %40, i32 0, i32 7
  store ptr null, ptr %41, align 8
  %42 = load ptr, ptr %9, align 8
  %43 = getelementptr inbounds %struct.mlib_image, ptr %42, i32 0, i32 10
  store i32 0, ptr %43, align 8
  %44 = load ptr, ptr %9, align 8
  %45 = getelementptr inbounds %struct.mlib_image, ptr %44, i32 0, i32 8
  %46 = getelementptr inbounds [4 x i8], ptr %45, i64 0, i64 0
  store i8 0, ptr %46, align 8
  %47 = load ptr, ptr %9, align 8
  %48 = getelementptr inbounds %struct.mlib_image, ptr %47, i32 0, i32 8
  %49 = getelementptr inbounds [4 x i8], ptr %48, i64 0, i64 1
  store i8 0, ptr %49, align 1
  %50 = load ptr, ptr %9, align 8
  %51 = getelementptr inbounds %struct.mlib_image, ptr %50, i32 0, i32 8
  %52 = getelementptr inbounds [4 x i8], ptr %51, i64 0, i64 2
  store i8 0, ptr %52, align 2
  %53 = load ptr, ptr %9, align 8
  %54 = getelementptr inbounds %struct.mlib_image, ptr %53, i32 0, i32 8
  %55 = getelementptr inbounds [4 x i8], ptr %54, i64 0, i64 3
  store i8 0, ptr %55, align 1
  %56 = load ptr, ptr %9, align 8
  %57 = getelementptr inbounds %struct.mlib_image, ptr %56, i32 0, i32 9
  store i32 0, ptr %57, align 4
  %58 = load i32, ptr %12, align 4
  %59 = icmp sle i32 %58, 0
  br i1 %59, label %69, label %60

60:                                               ; preds = %21
  %61 = load i32, ptr %13, align 4
  %62 = icmp sle i32 %61, 0
  br i1 %62, label %69, label %63

63:                                               ; preds = %60
  %64 = load i32, ptr %11, align 4
  %65 = icmp slt i32 %64, 1
  br i1 %65, label %69, label %66

66:                                               ; preds = %63
  %67 = load i32, ptr %11, align 4
  %68 = icmp sgt i32 %67, 4
  br i1 %68, label %69, label %70

69:                                               ; preds = %66, %63, %60, %21
  store ptr null, ptr %8, align 8
  br label %196

70:                                               ; preds = %66
  %71 = load i32, ptr %12, align 4
  %72 = icmp sgt i32 %71, 0
  br i1 %72, label %73, label %81

73:                                               ; preds = %70
  %74 = load i32, ptr %11, align 4
  %75 = icmp sge i32 %74, 0
  br i1 %75, label %76, label %81

76:                                               ; preds = %73
  %77 = load i32, ptr %12, align 4
  %78 = sdiv i32 2147483647, %77
  %79 = load i32, ptr %11, align 4
  %80 = icmp sgt i32 %78, %79
  br i1 %80, label %82, label %81

81:                                               ; preds = %76, %73, %70
  store ptr null, ptr %8, align 8
  br label %196

82:                                               ; preds = %76
  %83 = load i32, ptr %12, align 4
  %84 = load i32, ptr %11, align 4
  %85 = mul nsw i32 %83, %84
  store i32 %85, ptr %16, align 4
  %86 = load i32, ptr %10, align 4
  switch i32 %86, label %132 [
    i32 5, label %87
    i32 4, label %98
    i32 3, label %98
    i32 6, label %109
    i32 2, label %109
    i32 1, label %120
    i32 0, label %121
  ]

87:                                               ; preds = %82
  %88 = load i32, ptr %16, align 4
  %89 = icmp sgt i32 %88, 0
  br i1 %89, label %90, label %94

90:                                               ; preds = %87
  %91 = load i32, ptr %16, align 4
  %92 = sdiv i32 2147483647, %91
  %93 = icmp sgt i32 %92, 8
  br i1 %93, label %95, label %94

94:                                               ; preds = %90, %87
  store ptr null, ptr %8, align 8
  br label %196

95:                                               ; preds = %90
  %96 = load i32, ptr %16, align 4
  %97 = mul nsw i32 %96, 8
  store i32 %97, ptr %16, align 4
  store i32 7, ptr %17, align 4
  br label %133

98:                                               ; preds = %82, %82
  %99 = load i32, ptr %16, align 4
  %100 = icmp sgt i32 %99, 0
  br i1 %100, label %101, label %105

101:                                              ; preds = %98
  %102 = load i32, ptr %16, align 4
  %103 = sdiv i32 2147483647, %102
  %104 = icmp sgt i32 %103, 4
  br i1 %104, label %106, label %105

105:                                              ; preds = %101, %98
  store ptr null, ptr %8, align 8
  br label %196

106:                                              ; preds = %101
  %107 = load i32, ptr %16, align 4
  %108 = mul nsw i32 %107, 4
  store i32 %108, ptr %16, align 4
  store i32 3, ptr %17, align 4
  br label %133

109:                                              ; preds = %82, %82
  %110 = load i32, ptr %16, align 4
  %111 = icmp sgt i32 %110, 0
  br i1 %111, label %112, label %116

112:                                              ; preds = %109
  %113 = load i32, ptr %16, align 4
  %114 = sdiv i32 2147483647, %113
  %115 = icmp sgt i32 %114, 2
  br i1 %115, label %117, label %116

116:                                              ; preds = %112, %109
  store ptr null, ptr %8, align 8
  br label %196

117:                                              ; preds = %112
  %118 = load i32, ptr %16, align 4
  %119 = mul nsw i32 %118, 2
  store i32 %119, ptr %16, align 4
  store i32 1, ptr %17, align 4
  br label %133

120:                                              ; preds = %82
  store i32 0, ptr %17, align 4
  br label %133

121:                                              ; preds = %82
  %122 = load i32, ptr %16, align 4
  %123 = icmp sge i32 %122, 0
  br i1 %123, label %124, label %127

124:                                              ; preds = %121
  %125 = load i32, ptr %16, align 4
  %126 = icmp sgt i32 2147483640, %125
  br i1 %126, label %128, label %127

127:                                              ; preds = %124, %121
  store ptr null, ptr %8, align 8
  br label %196

128:                                              ; preds = %124
  %129 = load i32, ptr %16, align 4
  %130 = add nsw i32 %129, 7
  %131 = sdiv i32 %130, 8
  store i32 %131, ptr %16, align 4
  store i32 0, ptr %17, align 4
  br label %133

132:                                              ; preds = %82
  store ptr null, ptr %8, align 8
  br label %196

133:                                              ; preds = %128, %120, %117, %106, %95
  %134 = load i32, ptr %14, align 4
  %135 = load i32, ptr %17, align 4
  %136 = and i32 %134, %135
  %137 = icmp ne i32 %136, 0
  br i1 %137, label %138, label %139

138:                                              ; preds = %133
  store ptr null, ptr %8, align 8
  br label %196

139:                                              ; preds = %133
  %140 = load i32, ptr %12, align 4
  %141 = and i32 %140, 15
  %142 = shl i32 %141, 8
  %143 = load ptr, ptr %9, align 8
  %144 = getelementptr inbounds %struct.mlib_image, ptr %143, i32 0, i32 5
  store i32 %142, ptr %144, align 4
  %145 = load i32, ptr %14, align 4
  %146 = and i32 %145, 15
  %147 = shl i32 %146, 16
  %148 = load ptr, ptr %9, align 8
  %149 = getelementptr inbounds %struct.mlib_image, ptr %148, i32 0, i32 5
  %150 = load i32, ptr %149, align 4
  %151 = or i32 %150, %147
  store i32 %151, ptr %149, align 4
  %152 = load i32, ptr %13, align 4
  %153 = and i32 %152, 15
  %154 = shl i32 %153, 12
  %155 = load ptr, ptr %9, align 8
  %156 = getelementptr inbounds %struct.mlib_image, ptr %155, i32 0, i32 5
  %157 = load i32, ptr %156, align 4
  %158 = or i32 %157, %154
  store i32 %158, ptr %156, align 4
  %159 = load ptr, ptr %15, align 8
  %160 = ptrtoint ptr %159 to i64
  %161 = and i64 %160, 255
  %162 = load ptr, ptr %9, align 8
  %163 = getelementptr inbounds %struct.mlib_image, ptr %162, i32 0, i32 5
  %164 = load i32, ptr %163, align 4
  %165 = sext i32 %164 to i64
  %166 = or i64 %165, %161
  %167 = trunc i64 %166 to i32
  store i32 %167, ptr %163, align 4
  %168 = load ptr, ptr %9, align 8
  %169 = getelementptr inbounds %struct.mlib_image, ptr %168, i32 0, i32 5
  %170 = load i32, ptr %169, align 4
  %171 = or i32 %170, 2097152
  store i32 %171, ptr %169, align 4
  %172 = load i32, ptr %14, align 4
  %173 = load i32, ptr %16, align 4
  %174 = icmp ne i32 %172, %173
  br i1 %174, label %185, label %175

175:                                              ; preds = %139
  %176 = load i32, ptr %10, align 4
  %177 = icmp eq i32 %176, 0
  br i1 %177, label %178, label %190

178:                                              ; preds = %175
  %179 = load i32, ptr %14, align 4
  %180 = mul nsw i32 %179, 8
  %181 = load i32, ptr %12, align 4
  %182 = load i32, ptr %11, align 4
  %183 = mul nsw i32 %181, %182
  %184 = icmp ne i32 %180, %183
  br i1 %184, label %185, label %190

185:                                              ; preds = %178, %139
  %186 = load ptr, ptr %9, align 8
  %187 = getelementptr inbounds %struct.mlib_image, ptr %186, i32 0, i32 5
  %188 = load i32, ptr %187, align 4
  %189 = or i32 %188, 1048576
  store i32 %189, ptr %187, align 4
  br label %190

190:                                              ; preds = %185, %178, %175
  %191 = load ptr, ptr %9, align 8
  %192 = getelementptr inbounds %struct.mlib_image, ptr %191, i32 0, i32 5
  %193 = load i32, ptr %192, align 4
  %194 = and i32 %193, 2147483647
  store i32 %194, ptr %192, align 4
  %195 = load ptr, ptr %9, align 8
  store ptr %195, ptr %8, align 8
  br label %196

196:                                              ; preds = %190, %138, %132, %127, %116, %105, %94, %81, %69, %20
  %197 = load ptr, ptr %8, align 8
  ret ptr %197
}