; Function Attrs: mustprogress nofree norecurse nosync nounwind willreturn memory(argmem: write) uwtable
define hidden noundef ptr @mlib_ImageSet(ptr noundef writeonly %0, i32 noundef %1, i32 noundef %2, i32 noundef %3, i32 noundef %4, i32 noundef %5, ptr noundef %6) local_unnamed_addr #0 {
  %8 = icmp eq ptr %0, null
  br i1 %8, label %66, label %9

9:                                                ; preds = %7
  store i32 %1, ptr %0, align 8
  %10 = getelementptr inbounds i8, ptr %0, i64 4
  store i32 %2, ptr %10, align 4
  %11 = getelementptr inbounds i8, ptr %0, i64 8
  store i32 %3, ptr %11, align 8
  %12 = getelementptr inbounds i8, ptr %0, i64 12
  store i32 %4, ptr %12, align 4
  %13 = getelementptr inbounds i8, ptr %0, i64 16
  store i32 %5, ptr %13, align 8
  %14 = getelementptr inbounds i8, ptr %0, i64 24
  store ptr %6, ptr %14, align 8
  %15 = getelementptr inbounds i8, ptr %0, i64 32
  %16 = icmp slt i32 %3, 1
  %17 = icmp slt i32 %4, 1
  %or.cond = or i1 %16, %17
  %18 = add i32 %2, -5
  %19 = icmp ult i32 %18, -4
  %or.cond5 = or i1 %19, %or.cond
  tail call void @llvm.memset.p0.i64(ptr noundef nonnull align 8 dereferenceable(20) %15, i8 0, i64 20, i1 false)
  br i1 %or.cond5, label %66, label %20

20:                                               ; preds = %9
  %21 = udiv i32 2147483647, %3
  %22 = icmp ugt i32 %21, %2
  br i1 %22, label %23, label %66

23:                                               ; preds = %20
  %24 = mul nuw nsw i32 %3, %2
  switch i32 %1, label %66 [
    i32 5, label %25
    i32 4, label %29
    i32 3, label %29
    i32 6, label %33
    i32 2, label %33
    i32 1, label %42
    i32 0, label %37
  ]

25:                                               ; preds = %23
  %26 = icmp ult i32 %24, 238609295
  br i1 %26, label %27, label %66

27:                                               ; preds = %25
  %28 = shl nuw nsw i32 %24, 3
  br label %42

29:                                               ; preds = %23, %23
  %30 = icmp ult i32 %24, 429496730
  br i1 %30, label %31, label %66

31:                                               ; preds = %29
  %32 = shl nuw nsw i32 %24, 2
  br label %42

33:                                               ; preds = %23, %23
  %34 = icmp ult i32 %24, 715827883
  br i1 %34, label %35, label %66

35:                                               ; preds = %33
  %36 = shl nuw nsw i32 %24, 1
  br label %42

37:                                               ; preds = %23
  %38 = icmp ult i32 %24, 2147483640
  br i1 %38, label %39, label %66

39:                                               ; preds = %37
  %40 = add nuw nsw i32 %24, 7
  %41 = lshr i32 %40, 3
  br label %42

42:                                               ; preds = %23, %39, %35, %31, %27
  %.072 = phi i32 [ %41, %39 ], [ %36, %35 ], [ %32, %31 ], [ %28, %27 ], [ %24, %23 ]
  %.0 = phi i32 [ 0, %39 ], [ 1, %35 ], [ 3, %31 ], [ 7, %27 ], [ 0, %23 ]
  %43 = and i32 %.0, %5
  %.not = icmp eq i32 %43, 0
  br i1 %.not, label %44, label %66

44:                                               ; preds = %42
  %45 = shl i32 %3, 8
  %46 = and i32 %45, 3840
  %47 = getelementptr inbounds i8, ptr %0, i64 20
  %48 = shl i32 %5, 16
  %49 = and i32 %48, 983040
  %50 = shl i32 %4, 12
  %51 = and i32 %50, 61440
  %52 = ptrtoint ptr %6 to i64
  %53 = trunc i64 %52 to i32
  %54 = and i32 %53, 255
  %55 = or disjoint i32 %51, %46
  %56 = or disjoint i32 %55, %49
  %57 = or disjoint i32 %56, %54
  %.not80 = icmp eq i32 %.072, %5
  br i1 %.not80, label %58, label %62

58:                                               ; preds = %44
  %59 = or disjoint i32 %57, 2097152
  %60 = icmp ne i32 %1, 0
  %61 = shl nsw i32 %5, 3
  %.not81 = icmp eq i32 %61, %24
  %or.cond82 = select i1 %60, i1 true, i1 %.not81
  br i1 %or.cond82, label %64, label %62

62:                                               ; preds = %58, %44
  %63 = or disjoint i32 %57, 3145728
  br label %64

64:                                               ; preds = %62, %58
  %65 = phi i32 [ %63, %62 ], [ %59, %58 ]
  store i32 %65, ptr %47, align 4
  br label %66

66:                                               ; preds = %42, %23, %37, %33, %29, %25, %20, %9, %7, %64
  %.073 = phi ptr [ %0, %64 ], [ null, %7 ], [ null, %9 ], [ null, %20 ], [ null, %25 ], [ null, %29 ], [ null, %33 ], [ null, %37 ], [ null, %23 ], [ null, %42 ]
  ret ptr %.073
}